; Function Attrs: mustprogress nofree norecurse nosync nounwind willreturn memory(read, inaccessiblemem: none) uwtable
define hidden noundef zeroext i1 @_ZNK10macro_util5is_leEP4expr(ptr noundef nonnull readonly align 8 captures(none) dereferenceable(320) %0, ptr noundef readonly captures(none) %1) local_unnamed_addr #7 align 2 {
  %3 = getelementptr inbounds nuw i8, ptr %1, i64 4
  %4 = load i32, ptr %3, align 4
  %5 = and i32 %4, 65535
  %6 = icmp eq i32 %5, 0
  br i1 %6, label %7, label %_ZNK14bv_recognizers9is_bv_sleEPK4expr.exit

7:                                                ; preds = %2
  %8 = getelementptr inbounds nuw i8, ptr %1, i64 16
  %9 = load ptr, ptr %8, align 8, !tbaa !50
  %10 = getelementptr inbounds nuw i8, ptr %9, i64 24
  %11 = load ptr, ptr %10, align 8, !tbaa !55
  %.not.i.i.i.i = icmp eq ptr %11, null
  br i1 %.not.i.i.i.i, label %_ZNK14bv_recognizers9is_bv_sleEPK4expr.exit, label %_ZNK17arith_recognizers5is_leEPK4expr.exit

_ZNK17arith_recognizers5is_leEPK4expr.exit:       ; preds = %7
  %12 = load i32, ptr %11, align 8, !tbaa !60
  %13 = icmp eq i32 %12, 5
  %14 = getelementptr inbounds nuw i8, ptr %11, i64 4
  %15 = load i32, ptr %14, align 4
  %16 = icmp eq i32 %15, 2
  %17 = select i1 %13, i1 %16, i1 false
  br i1 %17, label %_ZNK14bv_recognizers9is_bv_sleEPK4expr.exit, label %_ZNK14bv_recognizers9is_bv_uleEPK4expr.exit

_ZNK14bv_recognizers9is_bv_uleEPK4expr.exit:      ; preds = %_ZNK17arith_recognizers5is_leEPK4expr.exit
  %.in = getelementptr inbounds nuw i8, ptr %0, i64 8
  %18 = load i32, ptr %.in, align 8, !tbaa !64
  %19 = load i32, ptr %11, align 8, !tbaa !60
  %20 = icmp eq i32 %19, %18
  %21 = getelementptr inbounds nuw i8, ptr %11, i64 4
  %22 = load i32, ptr %21, align 4
  %23 = icmp eq i32 %22, 22
  %24 = select i1 %20, i1 %23, i1 false
  br i1 %24, label %_ZNK14bv_recognizers9is_bv_sleEPK4expr.exit, label %.thread8

.thread8:                                         ; preds = %_ZNK14bv_recognizers9is_bv_uleEPK4expr.exit
  %25 = load i32, ptr %11, align 8, !tbaa !60
  %26 = icmp eq i32 %25, %18
  %27 = getelementptr inbounds nuw i8, ptr %11, i64 4
  %28 = load i32, ptr %27, align 4
  %29 = icmp eq i32 %28, 23
  %30 = select i1 %26, i1 %29, i1 false
  br label %_ZNK14bv_recognizers9is_bv_sleEPK4expr.exit

_ZNK14bv_recognizers9is_bv_sleEPK4expr.exit:      ; preds = %7, %2, %.thread8, %_ZNK14bv_recognizers9is_bv_uleEPK4expr.exit, %_ZNK17arith_recognizers5is_leEPK4expr.exit
  %31 = phi i1 [ true, %_ZNK14bv_recognizers9is_bv_uleEPK4expr.exit ], [ true, %_ZNK17arith_recognizers5is_leEPK4expr.exit ], [ %30, %.thread8 ], [ false, %2 ], [ false, %7 ]
  ret i1 %31
}